target datalayout = "e-m:e-p270:32:32-p271:32:32-p272:64:64-i64:64-i128:128-f80:128-n8:16:32:64-S128"
target triple = "x86_64-pc-linux-gnu"

%struct.Mv = type { i32, i32 }
%struct.VVCLocalContext = type { i8, i8, i8, i8, i32, i32, [4 x i8], [3276800 x i8], [16384 x i16], [16384 x i16], [16384 x i16], [32768 x i8], [332800 x i8], [368640 x i8], [368640 x i8], [17424 x i32], %struct.anon, %struct.anon.0, ptr, [2 x [1024 x %struct.ReconstructedArea]], [2 x i32], %struct.NeighbourAvailable, i32, ptr, ptr, ptr, ptr }
%struct.anon = type { i32, i8, i32, i32, i32, [3 x i32], i32, i32, i32, i32, i32, i32 }
%struct.anon.0 = type { i32, i32, i32 }
%struct.ReconstructedArea = type { i32, i32, i32, i32 }
%struct.NeighbourAvailable = type { i32, i32, i32, i32, i32 }
%struct.PredWeightTable = type { [2 x i8], [2 x i8], [2 x [2 x [15 x i8]]], [2 x [3 x [15 x i16]]], [2 x [3 x [15 x i16]]] }
%struct.VVCFrameContext = type { ptr, [17 x %struct.VVCFrame], ptr, ptr, %struct.VVCFrameParamSets, ptr, i32, i32, ptr, %struct.VVCDSPContext, %struct.VideoDSPContext, ptr, i64, ptr, ptr, ptr, ptr, %struct.anon.1 }
%struct.VVCFrame = type { ptr, ptr, ptr, ptr, ptr, ptr, i32, i32, i32, %struct.VVCWindow, i32, i32, ptr, ptr, i16, i8, ptr }
%struct.VVCWindow = type { i16, i16, i16, i16 }
%struct.VVCFrameParamSets = type { ptr, ptr, %struct.VVCPH, [8 x ptr], %struct.VVCLMCS, ptr }
%struct.VVCPH = type { ptr, ptr, i32, i32, i8, [3 x i16], i8, [3 x i16], %struct.PredWeightTable }
%struct.VVCLMCS = type { i8, i8, %union.anon, %union.anon, [17 x i16], [16 x i16] }
%union.anon = type { [4096 x i16] }
%struct.VVCDSPContext = type { %struct.VVCInterDSPContext, %struct.VVCIntraDSPContext, %struct.VVCItxDSPContext, %struct.VVCLMCSDSPContext, %struct.VVCLFDSPContext, %struct.VVCSAODSPContext, %struct.VVCALFDSPContext }
%struct.VVCInterDSPContext = type { [2 x [7 x [2 x [2 x ptr]]]], [2 x [7 x [2 x [2 x ptr]]]], [2 x [7 x [2 x [2 x ptr]]]], [2 x [7 x ptr]], [2 x [7 x ptr]], [2 x [7 x ptr]], ptr, ptr, ptr, ptr, ptr, ptr, ptr, ptr, ptr, ptr, ptr, [2 x [2 x ptr]] }
%struct.VVCIntraDSPContext = type { ptr, ptr, ptr, ptr, ptr, ptr, ptr, ptr, ptr, ptr }
%struct.VVCItxDSPContext = type { ptr, ptr, [3 x [6 x ptr]], ptr, ptr }
%struct.VVCLMCSDSPContext = type { ptr }
%struct.VVCLFDSPContext = type { [2 x ptr], [2 x ptr], [2 x ptr] }
%struct.VVCSAODSPContext = type { [9 x ptr], [9 x ptr], [2 x ptr] }
%struct.VVCALFDSPContext = type { [2 x ptr], ptr, ptr, ptr }
%struct.VideoDSPContext = type { ptr, ptr }
%struct.anon.1 = type { ptr, ptr, ptr, ptr, [2 x ptr], [2 x ptr], [2 x ptr], [2 x ptr], [2 x ptr], [3 x ptr], ptr, ptr, [2 x ptr], ptr, ptr, [2 x ptr], ptr, ptr, ptr, [2 x ptr], ptr, [3 x ptr], ptr, [2 x ptr], [2 x ptr], [2 x ptr], [2 x [3 x ptr]], [2 x ptr], [2 x ptr], [3 x ptr], [3 x ptr], [3 x [2 x ptr]], [3 x [2 x ptr]], ptr, ptr, ptr, [3 x ptr], %struct.anon.2 }
%struct.anon.2 = type { i32, i32, i32, i32, i32, i32, i32, i32, i32, i32, i32, i32 }
%struct.VVCPPS = type { ptr, [3 x i8], [6 x [3 x i8]], i16, i16, [1000 x i16], [1000 x i16], i16, i16, i16, i16, i32, i16, i16, i16, i16, ptr, ptr, ptr, ptr, ptr, i16, i16, i16, i16, i16, [1000 x i16], [1000 x i16], [1000 x i16], [1000 x i16] }
%struct.MvField = type { [2 x %struct.Mv], [2 x i8], i8, i8, i8, i8 }
%struct.CodingUnit = type { i32, i32, i32, i32, i32, i32, i32, i8, i8, i8, i8, i32, i32, i8, i8, i8, i8, i8, i32, i32, i32, i32, i32, i32, [3 x i32], [3 x i32], %struct.anon.3, [4 x i8], [3 x %struct.Palette], [4 x i8], %struct.PredictionUnit, ptr }
%struct.anon.3 = type { ptr, ptr }
%struct.Palette = type { i8, [63 x i16] }
%struct.PredictionUnit = type { i8, i8, i8, i8, i8, i8, [2 x %struct.MvField], i32, %struct.MotionInfo, i8, i8, [2 x [16 x i16]], [2 x [16 x i16]], [2 x i32], [4 x i8] }
%struct.MotionInfo = type { i32, [2 x i8], i8, i8, i32, [2 x [3 x %struct.Mv]], i32, i32 }
%struct.VVCSPS = type { ptr, [3 x i8], [3 x i8], i32, i8, i32, i8, i8, i8, i16, i8, i8, i8, i8, i8, i8, i8, i8, [5 x i32], i8, i8, [3 x [111 x i8]] }
%struct.EntryPoint = type { i8, [3 x i32], [3 x %struct.Palette], [378 x %struct.VVCCabacState], %struct.CABACContext, i32, i32, i8, [7 x i8], [5 x %struct.MvField], i32, [4 x i8], [5 x %struct.MvField], i32 }
%struct.VVCCabacState = type { [2 x i16], [2 x i8] }
%struct.CABACContext = type { i32, i32, ptr, ptr, ptr }

; Function Attrs: alwaysinline nounwind uwtable
define internal i32 @is_greater_mer(ptr noundef %0, i32 noundef %1, i32 noundef %2, i32 noundef %3, i32 noundef %4) #8 {
  %6 = alloca ptr, align 8
  %7 = alloca i32, align 4
  %8 = alloca i32, align 4
  %9 = alloca i32, align 4
  %10 = alloca i32, align 4
  %11 = alloca i8, align 1
  store ptr %0, ptr %6, align 8, !tbaa !78
  store i32 %1, ptr %7, align 4, !tbaa !9
  store i32 %2, ptr %8, align 4, !tbaa !9
  store i32 %3, ptr %9, align 4, !tbaa !9
  store i32 %4, ptr %10, align 4, !tbaa !9
  call void @llvm.lifetime.start.p0(i64 1, ptr %11) #9
  %12 = load ptr, ptr %6, align 8, !tbaa !78
  %13 = getelementptr inbounds nuw %struct.VVCFrameContext, ptr %12, i32 0, i32 4
  %14 = getelementptr inbounds nuw %struct.VVCFrameParamSets, ptr %13, i32 0, i32 0
  %15 = load ptr, ptr %14, align 8, !tbaa !140
  %16 = getelementptr inbounds nuw %struct.VVCSPS, ptr %15, i32 0, i32 19
  %17 = load i8, ptr %16, align 8, !tbaa !191
  store i8 %17, ptr %11, align 1, !tbaa !35
  %18 = load i32, ptr %9, align 4, !tbaa !9
  %19 = load i8, ptr %11, align 1, !tbaa !35
  %20 = zext i8 %19 to i32
  %21 = ashr i32 %18, %20
  %22 = load i32, ptr %7, align 4, !tbaa !9
  %23 = load i8, ptr %11, align 1, !tbaa !35
  %24 = zext i8 %23 to i32
  %25 = ashr i32 %22, %24
  %26 = icmp sgt i32 %21, %25
  br i1 %26, label %27, label %37

27:                                               ; preds = %5
  %28 = load i32, ptr %10, align 4, !tbaa !9
  %29 = load i8, ptr %11, align 1, !tbaa !35
  %30 = zext i8 %29 to i32
  %31 = ashr i32 %28, %30
  %32 = load i32, ptr %8, align 4, !tbaa !9
  %33 = load i8, ptr %11, align 1, !tbaa !35
  %34 = zext i8 %33 to i32
  %35 = ashr i32 %32, %34
  %36 = icmp sgt i32 %31, %35
  br label %37

37:                                               ; preds = %27, %5
  %38 = phi i1 [ false, %5 ], [ %36, %27 ]
  %39 = zext i1 %38 to i32
  call void @llvm.lifetime.end.p0(i64 1, ptr %11) #9
  ret i32 %39
}

; Function Attrs: nounwind uwtable
define internal void @update_hmvp(ptr noundef %0, ptr noundef %1, ptr noundef %2, ptr noundef %3) #0 {
  %5 = alloca ptr, align 8
  %6 = alloca ptr, align 8
  %7 = alloca ptr, align 8
  %8 = alloca ptr, align 8
  %9 = alloca i32, align 4
  store ptr %0, ptr %5, align 8, !tbaa !77
  store ptr %1, ptr %6, align 8, !tbaa !165
  store ptr %2, ptr %7, align 8, !tbaa !77
  store ptr %3, ptr %8, align 8, !tbaa !189
  call void @llvm.lifetime.start.p0(i64 4, ptr %9) #9
  store i32 0, ptr %9, align 4, !tbaa !9
  br label %10

10:                                               ; preds = %29, %4
  %11 = load i32, ptr %9, align 4, !tbaa !9
  %12 = load ptr, ptr %6, align 8, !tbaa !165
  %13 = load i32, ptr %12, align 4, !tbaa !9
  %14 = icmp slt i32 %11, %13
  br i1 %14, label %15, label %32

15:                                               ; preds = %10
  %16 = load ptr, ptr %8, align 8, !tbaa !189
  %17 = load ptr, ptr %7, align 8, !tbaa !77
  %18 = load ptr, ptr %5, align 8, !tbaa !77
  %19 = load i32, ptr %9, align 4, !tbaa !9
  %20 = sext i32 %19 to i64
  %21 = getelementptr inbounds %struct.MvField, ptr %18, i64 %20
  %22 = call i32 %16(ptr noundef %17, ptr noundef %21)
  %23 = icmp ne i32 %22, 0
  br i1 %23, label %24, label %28

24:                                               ; preds = %15
  %25 = load ptr, ptr %6, align 8, !tbaa !165
  %26 = load i32, ptr %25, align 4, !tbaa !9
  %27 = add nsw i32 %26, -1
  store i32 %27, ptr %25, align 4, !tbaa !9
  br label %32

28:                                               ; preds = %15
  br label %29

29:                                               ; preds = %28
  %30 = load i32, ptr %9, align 4, !tbaa !9
  %31 = add nsw i32 %30, 1
  store i32 %31, ptr %9, align 4, !tbaa !9
  br label %10, !llvm.loop !190

32:                                               ; preds = %24, %10
  %33 = load i32, ptr %9, align 4, !tbaa !9
  %34 = icmp eq i32 %33, 5
  br i1 %34, label %35, label %39

35:                                               ; preds = %32
  %36 = load ptr, ptr %6, align 8, !tbaa !165
  %37 = load i32, ptr %36, align 4, !tbaa !9
  %38 = add nsw i32 %37, -1
  store i32 %38, ptr %36, align 4, !tbaa !9
  store i32 0, ptr %9, align 4, !tbaa !9
  br label %39

39:                                               ; preds = %35, %32
  %40 = load ptr, ptr %5, align 8, !tbaa !77
  %41 = load i32, ptr %9, align 4, !tbaa !9
  %42 = sext i32 %41 to i64
  %43 = getelementptr inbounds %struct.MvField, ptr %40, i64 %42
  %44 = load ptr, ptr %5, align 8, !tbaa !77
  %45 = load i32, ptr %9, align 4, !tbaa !9
  %46 = sext i32 %45 to i64
  %47 = getelementptr inbounds %struct.MvField, ptr %44, i64 %46
  %48 = getelementptr inbounds %struct.MvField, ptr %47, i64 1
  %49 = load ptr, ptr %6, align 8, !tbaa !165
  %50 = load i32, ptr %49, align 4, !tbaa !9
  %51 = load i32, ptr %9, align 4, !tbaa !9
  %52 = sub nsw i32 %50, %51
  %53 = sext i32 %52 to i64
  %54 = mul i64 %53, 24
  call void @llvm.memmove.p0.p0.i64(ptr align 8 %43, ptr align 8 %48, i64 %54, i1 false)
  %55 = load ptr, ptr %5, align 8, !tbaa !77
  %56 = load ptr, ptr %6, align 8, !tbaa !165
  %57 = load i32, ptr %56, align 4, !tbaa !9
  %58 = add nsw i32 %57, 1
  store i32 %58, ptr %56, align 4, !tbaa !9
  %59 = sext i32 %57 to i64
  %60 = getelementptr inbounds %struct.MvField, ptr %55, i64 %59
  %61 = load ptr, ptr %7, align 8, !tbaa !77
  call void @llvm.memcpy.p0.p0.i64(ptr align 8 %60, ptr align 8 %61, i64 24, i1 false), !tbaa.struct !85
  call void @llvm.lifetime.end.p0(i64 4, ptr %9) #9
  ret void
}

; Function Attrs: nounwind uwtable
define void @ff_vvc_update_hmvp(ptr noundef %0, ptr noundef %1) #0 {
  %3 = alloca ptr, align 8
  %4 = alloca ptr, align 8
  %5 = alloca ptr, align 8
  %6 = alloca ptr, align 8
  %7 = alloca i32, align 4
  %8 = alloca ptr, align 8
  %9 = alloca ptr, align 8
  %10 = alloca i32, align 4
  store ptr %0, ptr %3, align 8, !tbaa !14
  store ptr %1, ptr %4, align 8, !tbaa !117
  call void @llvm.lifetime.start.p0(i64 8, ptr %5) #9
  %11 = load ptr, ptr %3, align 8, !tbaa !14
  %12 = getelementptr inbounds nuw %struct.VVCLocalContext, ptr %11, i32 0, i32 24
  %13 = load ptr, ptr %12, align 8, !tbaa !39
  store ptr %13, ptr %5, align 8, !tbaa !78
  call void @llvm.lifetime.start.p0(i64 8, ptr %6) #9
  %14 = load ptr, ptr %3, align 8, !tbaa !14
  %15 = getelementptr inbounds nuw %struct.VVCLocalContext, ptr %14, i32 0, i32 18
  %16 = load ptr, ptr %15, align 8, !tbaa !90
  store ptr %16, ptr %6, align 8, !tbaa !91
  call void @llvm.lifetime.start.p0(i64 4, ptr %7) #9
  %17 = load ptr, ptr %5, align 8, !tbaa !78
  %18 = getelementptr inbounds nuw %struct.VVCFrameContext, ptr %17, i32 0, i32 4
  %19 = getelementptr inbounds nuw %struct.VVCFrameParamSets, ptr %18, i32 0, i32 1
  %20 = load ptr, ptr %19, align 8, !tbaa !80
  %21 = getelementptr inbounds nuw %struct.VVCPPS, ptr %20, i32 0, i32 12
  %22 = load i16, ptr %21, align 8, !tbaa !81
  %23 = zext i16 %22 to i32
  store i32 %23, ptr %7, align 4, !tbaa !9
  call void @llvm.lifetime.start.p0(i64 8, ptr %8) #9
  %24 = load ptr, ptr %5, align 8, !tbaa !78
  %25 = getelementptr inbounds nuw %struct.VVCFrameContext, ptr %24, i32 0, i32 17
  %26 = getelementptr inbounds nuw %struct.anon.1, ptr %25, i32 0, i32 20
  %27 = load ptr, ptr %26, align 8, !tbaa !79
  store ptr %27, ptr %8, align 8, !tbaa !77
  call void @llvm.lifetime.start.p0(i64 8, ptr %9) #9
  %28 = load ptr, ptr %3, align 8, !tbaa !14
  %29 = getelementptr inbounds nuw %struct.VVCLocalContext, ptr %28, i32 0, i32 25
  %30 = load ptr, ptr %29, align 16, !tbaa !186
  store ptr %30, ptr %9, align 8, !tbaa !187
  %31 = load ptr, ptr %6, align 8, !tbaa !91
  %32 = getelementptr inbounds nuw %struct.CodingUnit, ptr %31, i32 0, i32 19
  %33 = load i32, ptr %32, align 4, !tbaa !188
  %34 = icmp eq i32 %33, 4
  br i1 %34, label %35, label %65

35:                                               ; preds = %2
  %36 = load ptr, ptr %6, align 8, !tbaa !91
  %37 = getelementptr inbounds nuw %struct.CodingUnit, ptr %36, i32 0, i32 3
  %38 = load i32, ptr %37, align 4, !tbaa !107
  %39 = load ptr, ptr %6, align 8, !tbaa !91
  %40 = getelementptr inbounds nuw %struct.CodingUnit, ptr %39, i32 0, i32 4
  %41 = load i32, ptr %40, align 8, !tbaa !101
  %42 = mul nsw i32 %38, %41
  %43 = icmp sle i32 %42, 16
  br i1 %43, label %44, label %45

44:                                               ; preds = %35
  store i32 1, ptr %10, align 4
  br label %111

45:                                               ; preds = %35
  %46 = load ptr, ptr %9, align 8, !tbaa !187
  %47 = getelementptr inbounds nuw %struct.EntryPoint, ptr %46, i32 0, i32 12
  %48 = getelementptr inbounds [5 x %struct.MvField], ptr %47, i64 0, i64 0
  %49 = load ptr, ptr %9, align 8, !tbaa !187
  %50 = getelementptr inbounds nuw %struct.EntryPoint, ptr %49, i32 0, i32 13
  %51 = load ptr, ptr %8, align 8, !tbaa !77
  %52 = load ptr, ptr %6, align 8, !tbaa !91
  %53 = getelementptr inbounds nuw %struct.CodingUnit, ptr %52, i32 0, i32 2
  %54 = load i32, ptr %53, align 8, !tbaa !109
  %55 = ashr i32 %54, 2
  %56 = load i32, ptr %7, align 4, !tbaa !9
  %57 = mul nsw i32 %55, %56
  %58 = load ptr, ptr %6, align 8, !tbaa !91
  %59 = getelementptr inbounds nuw %struct.CodingUnit, ptr %58, i32 0, i32 1
  %60 = load i32, ptr %59, align 4, !tbaa !108
  %61 = ashr i32 %60, 2
  %62 = add nsw i32 %57, %61
  %63 = sext i32 %62 to i64
  %64 = getelementptr inbounds %struct.MvField, ptr %51, i64 %63
  call void @update_hmvp(ptr noundef %48, ptr noundef %50, ptr noundef %64, ptr noundef @compare_l0_mv)
  br label %110

65:                                               ; preds = %2
  %66 = load ptr, ptr %5, align 8, !tbaa !78
  %67 = load ptr, ptr %6, align 8, !tbaa !91
  %68 = getelementptr inbounds nuw %struct.CodingUnit, ptr %67, i32 0, i32 1
  %69 = load i32, ptr %68, align 4, !tbaa !108
  %70 = load ptr, ptr %6, align 8, !tbaa !91
  %71 = getelementptr inbounds nuw %struct.CodingUnit, ptr %70, i32 0, i32 2
  %72 = load i32, ptr %71, align 8, !tbaa !109
  %73 = load ptr, ptr %6, align 8, !tbaa !91
  %74 = getelementptr inbounds nuw %struct.CodingUnit, ptr %73, i32 0, i32 1
  %75 = load i32, ptr %74, align 4, !tbaa !108
  %76 = load ptr, ptr %6, align 8, !tbaa !91
  %77 = getelementptr inbounds nuw %struct.CodingUnit, ptr %76, i32 0, i32 3
  %78 = load i32, ptr %77, align 4, !tbaa !107
  %79 = add nsw i32 %75, %78
  %80 = load ptr, ptr %6, align 8, !tbaa !91
  %81 = getelementptr inbounds nuw %struct.CodingUnit, ptr %80, i32 0, i32 2
  %82 = load i32, ptr %81, align 8, !tbaa !109
  %83 = load ptr, ptr %6, align 8, !tbaa !91
  %84 = getelementptr inbounds nuw %struct.CodingUnit, ptr %83, i32 0, i32 4
  %85 = load i32, ptr %84, align 8, !tbaa !101
  %86 = add nsw i32 %82, %85
  %87 = call i32 @is_greater_mer(ptr noundef %66, i32 noundef %69, i32 noundef %72, i32 noundef %79, i32 noundef %86)
  %88 = icmp ne i32 %87, 0
  br i1 %88, label %90, label %89

89:                                               ; preds = %65
  store i32 1, ptr %10, align 4
  br label %111

90:                                               ; preds = %65
  %91 = load ptr, ptr %9, align 8, !tbaa !187
  %92 = getelementptr inbounds nuw %struct.EntryPoint, ptr %91, i32 0, i32 9
  %93 = getelementptr inbounds [5 x %struct.MvField], ptr %92, i64 0, i64 0
  %94 = load ptr, ptr %9, align 8, !tbaa !187
  %95 = getelementptr inbounds nuw %struct.EntryPoint, ptr %94, i32 0, i32 10
  %96 = load ptr, ptr %8, align 8, !tbaa !77
  %97 = load ptr, ptr %6, align 8, !tbaa !91
  %98 = getelementptr inbounds nuw %struct.CodingUnit, ptr %97, i32 0, i32 2
  %99 = load i32, ptr %98, align 8, !tbaa !109
  %100 = ashr i32 %99, 2
  %101 = load i32, ptr %7, align 4, !tbaa !9
  %102 = mul nsw i32 %100, %101
  %103 = load ptr, ptr %6, align 8, !tbaa !91
  %104 = getelementptr inbounds nuw %struct.CodingUnit, ptr %103, i32 0, i32 1
  %105 = load i32, ptr %104, align 4, !tbaa !108
  %106 = ashr i32 %105, 2
  %107 = add nsw i32 %102, %106
  %108 = sext i32 %107 to i64
  %109 = getelementptr inbounds %struct.MvField, ptr %96, i64 %108
  call void @update_hmvp(ptr noundef %93, ptr noundef %95, ptr noundef %109, ptr noundef @compare_mv_ref_idx)
  br label %110

110:                                              ; preds = %90, %45
  store i32 0, ptr %10, align 4
  br label %111

111:                                              ; preds = %110, %89, %44
  call void @llvm.lifetime.end.p0(i64 8, ptr %9) #9
  call void @llvm.lifetime.end.p0(i64 8, ptr %8) #9
  call void @llvm.lifetime.end.p0(i64 4, ptr %7) #9
  call void @llvm.lifetime.end.p0(i64 8, ptr %6) #9
  call void @llvm.lifetime.end.p0(i64 8, ptr %5) #9
  %112 = load i32, ptr %10, align 4
  switch i32 %112, label %114 [
    i32 0, label %113
    i32 1, label %113
  ]

113:                                              ; preds = %111, %111
  ret void

114:                                              ; preds = %111
  unreachable
}