; Function Attrs: nofree norecurse nosync nounwind memory(readwrite, inaccessiblemem: none) uwtable
define void @ff_vvc_update_hmvp(ptr noundef readonly captures(none) %0, ptr noundef readnone captures(none) %1) local_unnamed_addr #4 {
  %3 = getelementptr inbounds nuw i8, ptr %0, i64 4580552
  %4 = load ptr, ptr %3, align 8, !tbaa !30
  %5 = getelementptr inbounds nuw i8, ptr %0, i64 4547736
  %6 = load ptr, ptr %5, align 8, !tbaa !80
  %7 = getelementptr inbounds nuw i8, ptr %4, i64 1936
  %8 = load ptr, ptr %7, align 8, !tbaa !72
  %9 = getelementptr inbounds nuw i8, ptr %8, i64 4048
  %10 = load i16, ptr %9, align 8, !tbaa !73
  %11 = zext i16 %10 to i32
  %12 = getelementptr inbounds nuw i8, ptr %4, i64 21576
  %13 = load ptr, ptr %12, align 8, !tbaa !71
  %14 = getelementptr inbounds nuw i8, ptr %0, i64 4580560
  %15 = load ptr, ptr %14, align 16, !tbaa !180
  %16 = getelementptr inbounds nuw i8, ptr %6, i64 52
  %17 = load i32, ptr %16, align 4, !tbaa !175
  %18 = icmp eq i32 %17, 4
  br i1 %18, label %19, label %62

19:                                               ; preds = %2
  %20 = getelementptr inbounds nuw i8, ptr %6, i64 12
  %21 = load i32, ptr %20, align 4, !tbaa !89
  %22 = getelementptr inbounds nuw i8, ptr %6, i64 16
  %23 = load i32, ptr %22, align 8, !tbaa !83
  %24 = mul nsw i32 %23, %21
  %25 = icmp slt i32 %24, 17
  br i1 %25, label %138, label %26

26:                                               ; preds = %19
  %27 = getelementptr inbounds nuw i8, ptr %15, i64 2848
  %28 = getelementptr inbounds nuw i8, ptr %15, i64 2968
  %29 = getelementptr inbounds nuw i8, ptr %6, i64 8
  %30 = load i32, ptr %29, align 8, !tbaa !91
  %31 = ashr i32 %30, 2
  %32 = mul nsw i32 %31, %11
  %33 = getelementptr inbounds nuw i8, ptr %6, i64 4
  %34 = load i32, ptr %33, align 4, !tbaa !90
  %35 = ashr i32 %34, 2
  %36 = add nsw i32 %32, %35
  %37 = sext i32 %36 to i64
  %38 = getelementptr inbounds %struct.MvField, ptr %13, i64 %37
  %39 = load i32, ptr %28, align 4, !tbaa !131
  %40 = icmp sgt i32 %39, 0
  br i1 %40, label %.lr.ph.i.preheader, label %update_hmvp.exit

.lr.ph.i.preheader:                               ; preds = %26
  %41 = load i64, ptr %38, align 8, !tbaa !29
  %42 = zext nneg i32 %39 to i64
  br label %.lr.ph.i

.lr.ph.i:                                         ; preds = %.lr.ph.i.preheader, %48
  %indvars.iv.i = phi i64 [ %indvars.iv.next.i, %48 ], [ 0, %.lr.ph.i.preheader ]
  %43 = getelementptr inbounds nuw %struct.MvField, ptr %27, i64 %indvars.iv.i
  %44 = load i64, ptr %43, align 8, !tbaa !29
  %.not = icmp eq i64 %41, %44
  br i1 %.not, label %45, label %48

45:                                               ; preds = %.lr.ph.i
  %46 = add nsw i32 %39, -1
  store i32 %46, ptr %28, align 4, !tbaa !131
  %47 = trunc i64 %indvars.iv.i to i32
  br label %.loopexit.i

48:                                               ; preds = %.lr.ph.i
  %indvars.iv.next.i = add nuw nsw i64 %indvars.iv.i, 1
  %exitcond47.not = icmp eq i64 %indvars.iv.next.i, %42
  br i1 %exitcond47.not, label %.loopexit.i, label %.lr.ph.i, !llvm.loop !220

.loopexit.i:                                      ; preds = %48, %45
  %49 = phi i32 [ %46, %45 ], [ %39, %48 ]
  %.019.in.i = phi i32 [ %47, %45 ], [ %39, %48 ]
  %50 = icmp eq i32 %.019.in.i, 5
  br i1 %50, label %51, label %update_hmvp.exit

51:                                               ; preds = %.loopexit.i
  %52 = add nsw i32 %49, -1
  store i32 %52, ptr %28, align 4, !tbaa !131
  br label %update_hmvp.exit

update_hmvp.exit:                                 ; preds = %26, %.loopexit.i, %51
  %53 = phi i32 [ %52, %51 ], [ %49, %.loopexit.i ], [ %39, %26 ]
  %.1.i = phi i32 [ 0, %51 ], [ %.019.in.i, %.loopexit.i ], [ 0, %26 ]
  %54 = zext nneg i32 %.1.i to i64
  %55 = getelementptr inbounds nuw %struct.MvField, ptr %27, i64 %54
  %56 = getelementptr inbounds nuw i8, ptr %55, i64 24
  %57 = sub nsw i32 %53, %.1.i
  %58 = sext i32 %57 to i64
  %59 = mul nsw i64 %58, 24
  tail call void @llvm.memmove.p0.p0.i64(ptr nonnull align 8 %55, ptr nonnull align 8 %56, i64 %59, i1 false)
  %60 = load i32, ptr %28, align 4, !tbaa !131
  %61 = add nsw i32 %60, 1
  store i32 %61, ptr %28, align 4, !tbaa !131
  br label %.sink.split

62:                                               ; preds = %2
  %63 = getelementptr inbounds nuw i8, ptr %6, i64 4
  %64 = load i32, ptr %63, align 4, !tbaa !90
  %65 = getelementptr inbounds nuw i8, ptr %6, i64 8
  %66 = load i32, ptr %65, align 8, !tbaa !91
  %67 = getelementptr inbounds nuw i8, ptr %6, i64 12
  %68 = load i32, ptr %67, align 4, !tbaa !89
  %69 = add nsw i32 %68, %64
  %70 = getelementptr inbounds nuw i8, ptr %6, i64 16
  %71 = load i32, ptr %70, align 8, !tbaa !83
  %72 = add nsw i32 %71, %66
  %73 = getelementptr inbounds nuw i8, ptr %4, i64 1928
  %74 = load ptr, ptr %73, align 8, !tbaa !104
  %75 = getelementptr inbounds nuw i8, ptr %74, i64 64
  %76 = load i8, ptr %75, align 8, !tbaa !176
  %77 = zext i8 %76 to i32
  %78 = ashr i32 %69, %77
  %79 = ashr i32 %64, %77
  %80 = icmp sle i32 %78, %79
  %81 = ashr i32 %72, %77
  %82 = ashr i32 %66, %77
  %83 = icmp sle i32 %81, %82
  %narrow.not = select i1 %80, i1 true, i1 %83
  br i1 %narrow.not, label %138, label %84

84:                                               ; preds = %62
  %85 = getelementptr inbounds nuw i8, ptr %15, i64 2720
  %86 = getelementptr inbounds nuw i8, ptr %15, i64 2840
  %87 = ashr i32 %66, 2
  %88 = mul nsw i32 %87, %11
  %89 = ashr i32 %64, 2
  %90 = add nsw i32 %88, %89
  %91 = sext i32 %90 to i64
  %92 = getelementptr inbounds %struct.MvField, ptr %13, i64 %91
  %93 = load i32, ptr %86, align 4, !tbaa !131
  %94 = icmp sgt i32 %93, 0
  br i1 %94, label %.lr.ph.i27.preheader, label %update_hmvp.exit35

.lr.ph.i27.preheader:                             ; preds = %84
  %95 = getelementptr inbounds nuw i8, ptr %92, i64 20
  %96 = load i8, ptr %95, align 4, !tbaa !92
  %97 = zext i8 %96 to i32
  %98 = getelementptr inbounds nuw i8, ptr %92, i64 16
  %99 = zext nneg i32 %93 to i64
  br label %.lr.ph.i27

.lr.ph.i27:                                       ; preds = %.lr.ph.i27.preheader, %.loopexit
  %indvars.iv.i28 = phi i64 [ %indvars.iv.next.i33, %.loopexit ], [ 0, %.lr.ph.i27.preheader ]
  %100 = getelementptr inbounds nuw %struct.MvField, ptr %85, i64 %indvars.iv.i28
  %101 = getelementptr inbounds nuw i8, ptr %100, i64 20
  %102 = load i8, ptr %101, align 4, !tbaa !92
  %.not28.i = icmp eq i8 %96, %102
  br i1 %.not28.i, label %.preheader.i, label %.loopexit

.preheader.i:                                     ; preds = %.lr.ph.i27
  %103 = getelementptr inbounds nuw i8, ptr %100, i64 16
  br label %104

104:                                              ; preds = %.critedge.i, %.preheader.i
  %.not31.i = phi i1 [ true, %.preheader.i ], [ false, %.critedge.i ]
  %indvars.iv.i38 = phi i64 [ 0, %.preheader.i ], [ 1, %.critedge.i ]
  %105 = trunc nuw nsw i64 %indvars.iv.i38 to i32
  %106 = add nuw nsw i32 %105, 1
  %107 = and i32 %106, %97
  %.not29.i = icmp eq i32 %107, 0
  br i1 %.not29.i, label %.critedge.i, label %108

108:                                              ; preds = %104
  %109 = getelementptr inbounds nuw [2 x i8], ptr %98, i64 0, i64 %indvars.iv.i38
  %110 = load i8, ptr %109, align 1, !tbaa !29
  %111 = getelementptr inbounds nuw [2 x i8], ptr %103, i64 0, i64 %indvars.iv.i38
  %112 = load i8, ptr %111, align 1, !tbaa !29
  %113 = icmp eq i8 %110, %112
  %114 = getelementptr inbounds nuw %struct.Mv, ptr %92, i64 %indvars.iv.i38
  %115 = load i64, ptr %114, align 8, !tbaa !29
  %116 = getelementptr inbounds nuw %struct.Mv, ptr %100, i64 %indvars.iv.i38
  %117 = load i64, ptr %116, align 8, !tbaa !29
  %118 = icmp eq i64 %115, %117
  %or.cond.i = select i1 %113, i1 %118, i1 false
  br i1 %or.cond.i, label %.critedge.i, label %.loopexit

.critedge.i:                                      ; preds = %108, %104
  br i1 %.not31.i, label %104, label %compare_mv_ref_idx.exit, !llvm.loop !158

compare_mv_ref_idx.exit:                          ; preds = %.critedge.i
  %119 = add nsw i32 %93, -1
  store i32 %119, ptr %86, align 4, !tbaa !131
  %120 = trunc i64 %indvars.iv.i28 to i32
  br label %.loopexit.i30

.loopexit:                                        ; preds = %108, %.lr.ph.i27
  %indvars.iv.next.i33 = add nuw nsw i64 %indvars.iv.i28, 1
  %exitcond.not = icmp eq i64 %indvars.iv.next.i33, %99
  br i1 %exitcond.not, label %.loopexit.i30, label %.lr.ph.i27, !llvm.loop !220

.loopexit.i30:                                    ; preds = %.loopexit, %compare_mv_ref_idx.exit
  %121 = phi i32 [ %119, %compare_mv_ref_idx.exit ], [ %93, %.loopexit ]
  %.019.in.i31 = phi i32 [ %120, %compare_mv_ref_idx.exit ], [ %93, %.loopexit ]
  %122 = icmp eq i32 %.019.in.i31, 5
  br i1 %122, label %123, label %update_hmvp.exit35

123:                                              ; preds = %.loopexit.i30
  %124 = add nsw i32 %121, -1
  store i32 %124, ptr %86, align 4, !tbaa !131
  br label %update_hmvp.exit35

update_hmvp.exit35:                               ; preds = %84, %.loopexit.i30, %123
  %125 = phi i32 [ %124, %123 ], [ %121, %.loopexit.i30 ], [ %93, %84 ]
  %.1.i26 = phi i32 [ 0, %123 ], [ %.019.in.i31, %.loopexit.i30 ], [ 0, %84 ]
  %126 = zext nneg i32 %.1.i26 to i64
  %127 = getelementptr inbounds nuw %struct.MvField, ptr %85, i64 %126
  %128 = getelementptr inbounds nuw i8, ptr %127, i64 24
  %129 = sub nsw i32 %125, %.1.i26
  %130 = sext i32 %129 to i64
  %131 = mul nsw i64 %130, 24
  tail call void @llvm.memmove.p0.p0.i64(ptr nonnull align 8 %127, ptr nonnull align 8 %128, i64 %131, i1 false)
  %132 = load i32, ptr %86, align 4, !tbaa !131
  %133 = add nsw i32 %132, 1
  store i32 %133, ptr %86, align 4, !tbaa !131
  br label %.sink.split

.sink.split:                                      ; preds = %update_hmvp.exit35, %update_hmvp.exit
  %.sink = phi i32 [ %60, %update_hmvp.exit ], [ %132, %update_hmvp.exit35 ]
  %134 = phi i64 [ 2848, %update_hmvp.exit ], [ 2720, %update_hmvp.exit35 ]
  %.sink50 = phi ptr [ %38, %update_hmvp.exit ], [ %92, %update_hmvp.exit35 ]
  %135 = getelementptr inbounds nuw i8, ptr %15, i64 %134
  %136 = sext i32 %.sink to i64
  %137 = getelementptr inbounds %struct.MvField, ptr %135, i64 %136
  tail call void @llvm.memcpy.p0.p0.i64(ptr noundef nonnull align 8 dereferenceable(24) %137, ptr noundef nonnull align 8 dereferenceable(24) %.sink50, i64 24, i1 false)
  br label %138

138:                                              ; preds = %.sink.split, %62, %19
  ret void
}